; Function Attrs: nounwind uwtable
define ptr @l_Std_Time_Week_Offset_ofNanoseconds___boxed(ptr noundef %0) local_unnamed_addr #0 {
  %2 = load ptr, ptr @l_Std_Time_Week_Offset_toNanoseconds___closed__1, align 8, !tbaa !11
  %3 = ptrtoint ptr %0 to i64
  %4 = and i64 %3, 1
  %.not.i.i = icmp eq i64 %4, 0
  br i1 %.not.i.i, label %31, label %5, !prof !13

5:                                                ; preds = %1
  %6 = ptrtoint ptr %2 to i64
  %7 = and i64 %6, 1
  %.not18.i.i = icmp eq i64 %7, 0
  br i1 %.not18.i.i, label %l_Std_Time_Week_Offset_ofNanoseconds.exit.thread5, label %9, !prof !13

l_Std_Time_Week_Offset_ofNanoseconds.exit.thread5: ; preds = %5
  %8 = tail call ptr @lean_int_big_ediv(ptr noundef %0, ptr noundef %2) #5
  br label %lean_dec.exit

9:                                                ; preds = %5
  %10 = lshr i64 %6, 1
  %11 = trunc i64 %10 to i32
  %12 = icmp eq i32 %11, 0
  br i1 %12, label %lean_dec.exit, label %13

13:                                               ; preds = %9
  %sext.i.i = shl i64 %10, 32
  %14 = ashr exact i64 %sext.i.i, 32
  %15 = shl i64 %3, 31
  %16 = ashr i64 %15, 32
  %17 = sdiv i64 %16, %14
  %18 = srem i64 %16, %14
  %19 = icmp slt i64 %18, 0
  %20 = icmp sgt i32 %11, 0
  %.v.i.i = select i1 %20, i64 -1, i64 1
  %21 = select i1 %19, i64 %.v.i.i, i64 0
  %.016.i.i = add nsw i64 %21, %17
  %22 = add nsw i64 %.016.i.i, 2147483648
  %23 = icmp ult i64 %22, 4294967296
  br i1 %23, label %24, label %29, !prof !10

24:                                               ; preds = %13
  %25 = shl nsw i64 %.016.i.i, 1
  %26 = and i64 %25, 8589934590
  %27 = or disjoint i64 %26, 1
  %28 = inttoptr i64 %27 to ptr
  br label %lean_dec.exit

29:                                               ; preds = %13
  %30 = tail call ptr @lean_big_int64_to_int(i64 noundef range(i64 -4611686016279904256, 4611686018427387905) %.016.i.i) #5
  br label %lean_dec.exit

31:                                               ; preds = %1
  %32 = tail call ptr @lean_int_big_ediv(ptr noundef %0, ptr noundef %2) #5
  %33 = load i32, ptr %0, align 4, !tbaa !5
  %34 = icmp sgt i32 %33, 1
  br i1 %34, label %35, label %37, !prof !10

35:                                               ; preds = %31
  %36 = add nsw i32 %33, -1
  store i32 %36, ptr %0, align 4, !tbaa !5
  br label %lean_dec.exit

37:                                               ; preds = %31
  %.not.i = icmp eq i32 %33, 0
  br i1 %.not.i, label %lean_dec.exit, label %38

38:                                               ; preds = %37
  tail call void @lean_dec_ref_cold(ptr noundef nonnull %0) #5
  br label %lean_dec.exit

lean_dec.exit:                                    ; preds = %29, %24, %9, %38, %37, %35, %l_Std_Time_Week_Offset_ofNanoseconds.exit.thread5
  %.1.i.i4 = phi ptr [ %8, %l_Std_Time_Week_Offset_ofNanoseconds.exit.thread5 ], [ %32, %35 ], [ %32, %37 ], [ %32, %38 ], [ %30, %29 ], [ %28, %24 ], [ inttoptr (i64 1 to ptr), %9 ]
  ret ptr %.1.i.i4
}